target datalayout = "e-m:e-p270:32:32-p271:32:32-p272:64:64-i64:64-i128:128-f80:128-n8:16:32:64-S128"
target triple = "x86_64-unknown-linux-gnu"

%struct.Chardev = type { %struct.Object, %struct.QemuMutex, ptr, ptr, ptr, i32, i32, i8, ptr, ptr, [1 x i64] }
%struct.Object = type { ptr, ptr, ptr, i32, ptr }
%struct.QemuMutex = type { %union.pthread_mutex_t, i8 }
%union.pthread_mutex_t = type { %struct.__pthread_mutex_s }
%struct.__pthread_mutex_s = type { i32, i32, i32, i32, i32, i16, i16, %struct.__pthread_internal_list }
%struct.__pthread_internal_list = type { ptr, ptr }
%struct.ChardevClass = type { %struct.ObjectClass, i8, i8, ptr, ptr, ptr, ptr, ptr, ptr, ptr, ptr, ptr, ptr, ptr, ptr, ptr, ptr, ptr, ptr }
%struct.ObjectClass = type { ptr, ptr, [4 x ptr], [4 x ptr], ptr, ptr }
%struct.QemuCoSleep = type { ptr }

@.str.2 = private unnamed_addr constant [23 x i8] c"../qemu/chardev/char.c\00", align 1
@.str.4 = private unnamed_addr constant [8 x i8] c"chardev\00", align 1
@.str.104 = private unnamed_addr constant [101 x i8] c"/home/dtcxzyw/WorkSpace/Projects/compilers/llvm-opt-benchmark/bench/qemu/qemu/include/chardev/char.h\00", align 1
@__func__.CHARDEV_GET_CLASS = private unnamed_addr constant [18 x i8] c"CHARDEV_GET_CLASS\00", align 1
@__func__.qemu_chr_write_buffer = private unnamed_addr constant [22 x i8] c"qemu_chr_write_buffer\00", align 1
@qemu_mutex_lock_func = external global ptr, align 8

; Function Attrs: nounwind sspstrong uwtable
define internal void @qemu_chr_write_log(ptr noundef %s, ptr noundef %buf, i64 noundef %len) #0 {
entry:
  %s.addr = alloca ptr, align 8
  %buf.addr = alloca ptr, align 8
  %len.addr = alloca i64, align 8
  %done = alloca i64, align 8
  %ret = alloca i64, align 8
  store ptr %s, ptr %s.addr, align 8
  store ptr %buf, ptr %buf.addr, align 8
  store i64 %len, ptr %len.addr, align 8
  store i64 0, ptr %done, align 8
  %0 = load ptr, ptr %s.addr, align 8
  %logfd = getelementptr inbounds %struct.Chardev, ptr %0, i32 0, i32 5
  %1 = load i32, ptr %logfd, align 8
  %cmp = icmp slt i32 %1, 0
  br i1 %cmp, label %if.then, label %if.end

if.then:                                          ; preds = %entry
  br label %while.end

if.end:                                           ; preds = %entry
  br label %while.cond

while.cond:                                       ; preds = %if.end10, %if.end
  %2 = load i64, ptr %done, align 8
  %3 = load i64, ptr %len.addr, align 8
  %cmp1 = icmp ult i64 %2, %3
  br i1 %cmp1, label %while.body, label %while.end

while.body:                                       ; preds = %while.cond
  br label %retry

retry:                                            ; preds = %if.then6, %while.body
  %4 = load ptr, ptr %s.addr, align 8
  %logfd2 = getelementptr inbounds %struct.Chardev, ptr %4, i32 0, i32 5
  %5 = load i32, ptr %logfd2, align 8
  %6 = load ptr, ptr %buf.addr, align 8
  %7 = load i64, ptr %done, align 8
  %add.ptr = getelementptr i8, ptr %6, i64 %7
  %8 = load i64, ptr %len.addr, align 8
  %9 = load i64, ptr %done, align 8
  %sub = sub i64 %8, %9
  %call = call i64 @write(i32 noundef %5, ptr noundef %add.ptr, i64 noundef %sub)
  store i64 %call, ptr %ret, align 8
  %10 = load i64, ptr %ret, align 8
  %cmp3 = icmp eq i64 %10, -1
  br i1 %cmp3, label %land.lhs.true, label %if.end7

land.lhs.true:                                    ; preds = %retry
  %call4 = call ptr @__errno_location() #12
  %11 = load i32, ptr %call4, align 4
  %cmp5 = icmp eq i32 %11, 11
  br i1 %cmp5, label %if.then6, label %if.end7

if.then6:                                         ; preds = %land.lhs.true
  call void @g_usleep(i64 noundef 100)
  br label %retry

if.end7:                                          ; preds = %land.lhs.true, %retry
  %12 = load i64, ptr %ret, align 8
  %cmp8 = icmp sle i64 %12, 0
  br i1 %cmp8, label %if.then9, label %if.end10

if.then9:                                         ; preds = %if.end7
  br label %while.end

if.end10:                                         ; preds = %if.end7
  %13 = load i64, ptr %ret, align 8
  %14 = load i64, ptr %done, align 8
  %add = add i64 %14, %13
  store i64 %add, ptr %done, align 8
  br label %while.cond, !llvm.loop !7

while.end:                                        ; preds = %if.then9, %while.cond, %if.then
  ret void
}

; Function Attrs: nounwind sspstrong uwtable
define internal void @qemu_co_sleep_ns(i32 noundef %type, i64 noundef %ns) #0 {
entry:
  %type.addr = alloca i32, align 4
  %ns.addr = alloca i64, align 8
  %w = alloca %struct.QemuCoSleep, align 8
  store i32 %type, ptr %type.addr, align 4
  store i64 %ns, ptr %ns.addr, align 8
  call void @llvm.memset.p0.i64(ptr align 8 %w, i8 0, i64 8, i1 false)
  %0 = load i32, ptr %type.addr, align 4
  %1 = load i64, ptr %ns.addr, align 8
  call void @qemu_co_sleep_ns_wakeable(ptr noundef %w, i32 noundef %0, i64 noundef %1)
  ret void
}

; Function Attrs: nounwind sspstrong uwtable
define internal ptr @CHARDEV_GET_CLASS(ptr noundef %obj) #0 {
entry:
  %obj.addr = alloca ptr, align 8
  store ptr %obj, ptr %obj.addr, align 8
  %0 = load ptr, ptr %obj.addr, align 8
  %call = call ptr @object_get_class(ptr noundef %0)
  %call1 = call ptr @object_class_dynamic_cast_assert(ptr noundef %call, ptr noundef @.str.4, ptr noundef @.str.104, i32 noundef 231, ptr noundef @__func__.CHARDEV_GET_CLASS)
  ret ptr %call1
}

; Function Attrs: nounwind sspstrong uwtable
define internal i32 @qemu_chr_write_buffer(ptr noundef %s, ptr noundef %buf, i32 noundef %len, ptr noundef %offset, i1 noundef zeroext %write_all) #0 {
entry:
  %s.addr = alloca ptr, align 8
  %buf.addr = alloca ptr, align 8
  %len.addr = alloca i32, align 4
  %offset.addr = alloca ptr, align 8
  %write_all.addr = alloca i8, align 1
  %cc = alloca ptr, align 8
  %res = alloca i32, align 4
  %_f = alloca ptr, align 8
  %tmp = alloca ptr, align 8
  %atomic-temp = alloca ptr, align 8
  store ptr %s, ptr %s.addr, align 8
  store ptr %buf, ptr %buf.addr, align 8
  store i32 %len, ptr %len.addr, align 4
  store ptr %offset, ptr %offset.addr, align 8
  %frombool = zext i1 %write_all to i8
  store i8 %frombool, ptr %write_all.addr, align 1
  %0 = load ptr, ptr %s.addr, align 8
  %call = call ptr @CHARDEV_GET_CLASS(ptr noundef %0)
  store ptr %call, ptr %cc, align 8
  store i32 0, ptr %res, align 4
  %1 = load ptr, ptr %offset.addr, align 8
  store i32 0, ptr %1, align 4
  br label %while.cond

while.cond:                                       ; preds = %do.end, %entry
  br i1 false, label %while.body, label %while.end

while.body:                                       ; preds = %while.cond
  br label %do.body

do.body:                                          ; preds = %while.body
  call void @g_assertion_message_expr(ptr noundef null, ptr noundef @.str.2, i32 noundef 119, ptr noundef @__func__.qemu_chr_write_buffer, ptr noundef null) #11
  unreachable

do.end:                                           ; No predecessors!
  br label %while.cond

while.end:                                        ; preds = %while.cond
  %2 = load atomic i64, ptr @qemu_mutex_lock_func monotonic, align 8
  store i64 %2, ptr %atomic-temp, align 8
  %3 = load ptr, ptr %atomic-temp, align 8
  store ptr %3, ptr %tmp, align 8
  %4 = load ptr, ptr %tmp, align 8
  store ptr %4, ptr %_f, align 8
  %5 = load ptr, ptr %_f, align 8
  %6 = load ptr, ptr %s.addr, align 8
  %chr_write_lock = getelementptr inbounds %struct.Chardev, ptr %6, i32 0, i32 1
  call void %5(ptr noundef %chr_write_lock, ptr noundef @.str.2, i32 noundef 119)
  br label %while.cond1

while.cond1:                                      ; preds = %if.end16, %while.end
  %7 = load ptr, ptr %offset.addr, align 8
  %8 = load i32, ptr %7, align 4
  %9 = load i32, ptr %len.addr, align 4
  %cmp = icmp slt i32 %8, %9
  br i1 %cmp, label %while.body2, label %while.end17

while.body2:                                      ; preds = %while.cond1
  br label %retry

retry:                                            ; preds = %if.end, %while.body2
  %10 = load ptr, ptr %cc, align 8
  %chr_write = getelementptr inbounds %struct.ChardevClass, ptr %10, i32 0, i32 5
  %11 = load ptr, ptr %chr_write, align 8
  %12 = load ptr, ptr %s.addr, align 8
  %13 = load ptr, ptr %buf.addr, align 8
  %14 = load ptr, ptr %offset.addr, align 8
  %15 = load i32, ptr %14, align 4
  %idx.ext = sext i32 %15 to i64
  %add.ptr = getelementptr i8, ptr %13, i64 %idx.ext
  %16 = load i32, ptr %len.addr, align 4
  %17 = load ptr, ptr %offset.addr, align 8
  %18 = load i32, ptr %17, align 4
  %sub = sub i32 %16, %18
  %call3 = call i32 %11(ptr noundef %12, ptr noundef %add.ptr, i32 noundef %sub)
  store i32 %call3, ptr %res, align 4
  %19 = load i32, ptr %res, align 4
  %cmp4 = icmp slt i32 %19, 0
  br i1 %cmp4, label %land.lhs.true, label %if.end10

land.lhs.true:                                    ; preds = %retry
  %call5 = call ptr @__errno_location() #12
  %20 = load i32, ptr %call5, align 4
  %cmp6 = icmp eq i32 %20, 11
  br i1 %cmp6, label %land.lhs.true7, label %if.end10

land.lhs.true7:                                   ; preds = %land.lhs.true
  %21 = load i8, ptr %write_all.addr, align 1
  %tobool = trunc i8 %21 to i1
  br i1 %tobool, label %if.then, label %if.end10

if.then:                                          ; preds = %land.lhs.true7
  %call8 = call zeroext i1 @qemu_in_coroutine()
  br i1 %call8, label %if.then9, label %if.else

if.then9:                                         ; preds = %if.then
  call void @qemu_co_sleep_ns(i32 noundef 0, i64 noundef 100000)
  br label %if.end

if.else:                                          ; preds = %if.then
  call void @g_usleep(i64 noundef 100)
  br label %if.end

if.end:                                           ; preds = %if.else, %if.then9
  br label %retry

if.end10:                                         ; preds = %land.lhs.true7, %land.lhs.true, %retry
  %22 = load i32, ptr %res, align 4
  %cmp11 = icmp sle i32 %22, 0
  br i1 %cmp11, label %if.then12, label %if.end13

if.then12:                                        ; preds = %if.end10
  br label %while.end17

if.end13:                                         ; preds = %if.end10
  %23 = load i32, ptr %res, align 4
  %24 = load ptr, ptr %offset.addr, align 8
  %25 = load i32, ptr %24, align 4
  %add = add i32 %25, %23
  store i32 %add, ptr %24, align 4
  %26 = load i8, ptr %write_all.addr, align 1
  %tobool14 = trunc i8 %26 to i1
  br i1 %tobool14, label %if.end16, label %if.then15

if.then15:                                        ; preds = %if.end13
  br label %while.end17

if.end16:                                         ; preds = %if.end13
  br label %while.cond1, !llvm.loop !5

while.end17:                                      ; preds = %if.then15, %if.then12, %while.cond1
  %27 = load ptr, ptr %offset.addr, align 8
  %28 = load i32, ptr %27, align 4
  %cmp18 = icmp sgt i32 %28, 0
  br i1 %cmp18, label %if.then19, label %if.else20

if.then19:                                        ; preds = %while.end17
  %29 = load ptr, ptr %s.addr, align 8
  %30 = load ptr, ptr %buf.addr, align 8
  %31 = load ptr, ptr %offset.addr, align 8
  %32 = load i32, ptr %31, align 4
  %conv = sext i32 %32 to i64
  call void @qemu_chr_write_log(ptr noundef %29, ptr noundef %30, i64 noundef %conv)
  br label %if.end26

if.else20:                                        ; preds = %while.end17
  %33 = load i32, ptr %res, align 4
  %cmp21 = icmp slt i32 %33, 0
  br i1 %cmp21, label %if.then23, label %if.end25

if.then23:                                        ; preds = %if.else20
  %34 = load ptr, ptr %s.addr, align 8
  %35 = load ptr, ptr %buf.addr, align 8
  %36 = load i32, ptr %len.addr, align 4
  %conv24 = sext i32 %36 to i64
  call void @qemu_chr_write_log(ptr noundef %34, ptr noundef %35, i64 noundef %conv24)
  br label %if.end25

if.end25:                                         ; preds = %if.then23, %if.else20
  br label %if.end26

if.end26:                                         ; preds = %if.end25, %if.then19
  %37 = load ptr, ptr %s.addr, align 8
  %chr_write_lock27 = getelementptr inbounds %struct.Chardev, ptr %37, i32 0, i32 1
  call void @qemu_mutex_unlock_impl(ptr noundef %chr_write_lock27, ptr noundef @.str.2, i32 noundef 157)
  %38 = load i32, ptr %res, align 4
  ret i32 %38
}