; Function Attrs: nounwind sspstrong uwtable
define internal fastcc i32 @qemu_chr_write_buffer(ptr noundef %s, ptr noundef %buf, i32 noundef %len, ptr noundef nonnull captures(none) initializes((0, 4)) %offset, i1 noundef zeroext %write_all) unnamed_addr #0 {
entry:
  %w.i = alloca %struct.QemuCoSleep, align 8
  %call.i = tail call ptr @object_get_class(ptr noundef %s) #13
  %call1.i = tail call ptr @object_class_dynamic_cast_assert(ptr noundef %call.i, ptr noundef nonnull @.str.4, ptr noundef nonnull @.str.104, i32 noundef 231, ptr noundef nonnull @__func__.CHARDEV_GET_CLASS) #13
  store i32 0, ptr %offset, align 4
  %0 = load atomic i64, ptr @qemu_mutex_lock_func monotonic, align 8
  %1 = inttoptr i64 %0 to ptr
  %chr_write_lock = getelementptr inbounds nuw i8, ptr %s, i64 40
  tail call void %1(ptr noundef nonnull %chr_write_lock, ptr noundef nonnull @.str.2, i32 noundef 119) #13
  %2 = load i32, ptr %offset, align 4
  %cmp64 = icmp slt i32 %2, %len
  br i1 %cmp64, label %retry.preheader.lr.ph, label %while.end17.thread

retry.preheader.lr.ph:                            ; preds = %entry
  %chr_write = getelementptr inbounds nuw i8, ptr %call1.i, i64 120
  br i1 %write_all, label %retry.preheader.us, label %retry.preheader

retry.preheader.us:                               ; preds = %retry.preheader.lr.ph, %if.end13.us
  %3 = phi i32 [ %add.us, %if.end13.us ], [ %2, %retry.preheader.lr.ph ]
  %4 = load ptr, ptr %chr_write, align 8
  %idx.ext53.us = sext i32 %3 to i64
  %add.ptr54.us = getelementptr i8, ptr %buf, i64 %idx.ext53.us
  %sub55.us = sub i32 %len, %3
  %call356.us = call i32 %4(ptr noundef %s, ptr noundef %add.ptr54.us, i32 noundef %sub55.us) #13
  %cmp457.us = icmp slt i32 %call356.us, 0
  br i1 %cmp457.us, label %land.lhs.true.lr.ph.us, label %if.end10.us

if.end10.us:                                      ; preds = %if.end.us, %retry.preheader.us
  %call3.lcssa.us = phi i32 [ %call356.us, %retry.preheader.us ], [ %call3.us, %if.end.us ]
  %cmp11.us = icmp eq i32 %call3.lcssa.us, 0
  br i1 %cmp11.us, label %while.end17thread-pre-split, label %if.end13.us

if.end13.us:                                      ; preds = %if.end10.us
  %5 = load i32, ptr %offset, align 4
  %add.us = add i32 %5, %call3.lcssa.us
  store i32 %add.us, ptr %offset, align 4
  %cmp.us = icmp slt i32 %add.us, %len
  br i1 %cmp.us, label %retry.preheader.us, label %while.end17, !llvm.loop !5

land.lhs.true.us69:                               ; preds = %if.end.us
  %6 = load i32, ptr %call5.us, align 4
  %cmp6.us = icmp eq i32 %6, 11
  br i1 %cmp6.us, label %if.then.us, label %while.end17thread-pre-split

if.then.us:                                       ; preds = %land.lhs.true.lr.ph.us, %land.lhs.true.us69
  %call8.us = call zeroext i1 @qemu_in_coroutine() #13
  br i1 %call8.us, label %if.then9.us, label %if.else.us

if.else.us:                                       ; preds = %if.then.us
  call void @g_usleep(i64 noundef 100) #13
  br label %if.end.us

if.then9.us:                                      ; preds = %if.then.us
  call void @llvm.lifetime.start.p0(i64 8, ptr nonnull %w.i)
  store i64 0, ptr %w.i, align 8
  call void @qemu_co_sleep_ns_wakeable(ptr noundef nonnull %w.i, i32 noundef 0, i64 noundef 100000) #13
  call void @llvm.lifetime.end.p0(i64 8, ptr nonnull %w.i)
  br label %if.end.us

if.end.us:                                        ; preds = %if.then9.us, %if.else.us
  %7 = load ptr, ptr %chr_write, align 8
  %8 = load i32, ptr %offset, align 4
  %idx.ext.us = sext i32 %8 to i64
  %add.ptr.us = getelementptr i8, ptr %buf, i64 %idx.ext.us
  %sub.us = sub i32 %len, %8
  %call3.us = call i32 %7(ptr noundef %s, ptr noundef %add.ptr.us, i32 noundef %sub.us) #13
  %cmp4.us = icmp slt i32 %call3.us, 0
  br i1 %cmp4.us, label %land.lhs.true.us69, label %if.end10.us

land.lhs.true.lr.ph.us:                           ; preds = %retry.preheader.us
  %call5.us = tail call ptr @__errno_location() #15
  %9 = load i32, ptr %call5.us, align 4
  %cmp661.us = icmp eq i32 %9, 11
  br i1 %cmp661.us, label %if.then.us, label %while.end17thread-pre-split

retry.preheader:                                  ; preds = %retry.preheader.lr.ph
  %10 = load ptr, ptr %chr_write, align 8
  %idx.ext53 = sext i32 %2 to i64
  %add.ptr54 = getelementptr i8, ptr %buf, i64 %idx.ext53
  %sub55 = sub i32 %len, %2
  %call356 = tail call i32 %10(ptr noundef nonnull %s, ptr noundef %add.ptr54, i32 noundef %sub55) #13
  %cmp457 = icmp slt i32 %call356, 0
  br i1 %cmp457, label %while.end17thread-pre-split, label %if.end10

if.end10:                                         ; preds = %retry.preheader
  %cmp11 = icmp eq i32 %call356, 0
  br i1 %cmp11, label %while.end17thread-pre-split, label %if.end13

if.end13:                                         ; preds = %if.end10
  %11 = load i32, ptr %offset, align 4
  %add = add i32 %11, %call356
  store i32 %add, ptr %offset, align 4
  br label %while.end17

while.end17thread-pre-split:                      ; preds = %if.end10.us, %land.lhs.true.lr.ph.us, %land.lhs.true.us69, %retry.preheader, %if.end10
  %call352 = phi i32 [ 0, %if.end10 ], [ %call356, %retry.preheader ], [ %call3.us, %land.lhs.true.us69 ], [ %call356.us, %land.lhs.true.lr.ph.us ], [ 0, %if.end10.us ]
  %.pr = load i32, ptr %offset, align 4
  br label %while.end17

while.end17:                                      ; preds = %if.end13.us, %if.end13, %while.end17thread-pre-split
  %12 = phi i32 [ %.pr, %while.end17thread-pre-split ], [ %add, %if.end13 ], [ %add.us, %if.end13.us ]
  %res.1 = phi i32 [ %call352, %while.end17thread-pre-split ], [ %call356, %if.end13 ], [ %call3.lcssa.us, %if.end13.us ]
  %cmp18 = icmp sgt i32 %12, 0
  br i1 %cmp18, label %if.then19, label %if.else20

while.end17.thread:                               ; preds = %entry
  %cmp1887 = icmp sgt i32 %2, 0
  br i1 %cmp1887, label %if.then19, label %if.end26

if.then19:                                        ; preds = %while.end17.thread, %while.end17
  %res.190 = phi i32 [ 0, %while.end17.thread ], [ %res.1, %while.end17 ]
  %13 = phi i32 [ %2, %while.end17.thread ], [ %12, %while.end17 ]
  %conv = zext nneg i32 %13 to i64
  %logfd.i = getelementptr inbounds nuw i8, ptr %s, i64 112
  %14 = load i32, ptr %logfd.i, align 8
  %cmp.i = icmp sgt i32 %14, -1
  br i1 %cmp.i, label %retry.preheader.i, label %if.end26

retry.preheader.i:                                ; preds = %if.then19, %if.end7.i
  %done.014.i = phi i64 [ %add.i, %if.end7.i ], [ 0, %if.then19 ]
  %add.ptr.i = getelementptr i8, ptr %buf, i64 %done.014.i
  %sub.i = sub i64 %conv, %done.014.i
  %15 = load i32, ptr %logfd.i, align 8
  %call11.i = call i64 @write(i32 noundef %15, ptr noundef readonly %add.ptr.i, i64 noundef %sub.i) #13
  %cmp312.i = icmp eq i64 %call11.i, -1
  br i1 %cmp312.i, label %land.lhs.true.lr.ph.i, label %if.end7.i

land.lhs.true.lr.ph.i:                            ; preds = %retry.preheader.i
  %call4.i = tail call ptr @__errno_location() #15
  br label %land.lhs.true.i

land.lhs.true.i:                                  ; preds = %if.then6.i, %land.lhs.true.lr.ph.i
  %16 = load i32, ptr %call4.i, align 4
  %cmp5.i = icmp eq i32 %16, 11
  br i1 %cmp5.i, label %if.then6.i, label %if.end26

if.then6.i:                                       ; preds = %land.lhs.true.i
  call void @g_usleep(i64 noundef 100) #13
  %17 = load i32, ptr %logfd.i, align 8
  %call.i21 = call i64 @write(i32 noundef %17, ptr noundef readonly %add.ptr.i, i64 noundef %sub.i) #13
  %cmp3.i = icmp eq i64 %call.i21, -1
  br i1 %cmp3.i, label %land.lhs.true.i, label %if.end7.i

if.end7.i:                                        ; preds = %if.then6.i, %retry.preheader.i
  %call.lcssa.i = phi i64 [ %call11.i, %retry.preheader.i ], [ %call.i21, %if.then6.i ]
  %cmp8.i = icmp sgt i64 %call.lcssa.i, 0
  %add.i = add i64 %call.lcssa.i, %done.014.i
  %cmp1.i = icmp ult i64 %add.i, %conv
  %or.cond19.i = and i1 %cmp8.i, %cmp1.i
  br i1 %or.cond19.i, label %retry.preheader.i, label %if.end26, !llvm.loop !7

if.else20:                                        ; preds = %while.end17
  %cmp21 = icmp slt i32 %res.1, 0
  br i1 %cmp21, label %if.then23, label %if.end26

if.then23:                                        ; preds = %if.else20
  %conv24 = sext i32 %len to i64
  %logfd.i22 = getelementptr inbounds nuw i8, ptr %s, i64 112
  %18 = load i32, ptr %logfd.i22, align 8
  %cmp.i23 = icmp sgt i32 %18, -1
  %cmp113.i24 = icmp ne i32 %len, 0
  %or.cond.i25 = and i1 %cmp113.i24, %cmp.i23
  br i1 %or.cond.i25, label %retry.preheader.i26, label %if.end26

retry.preheader.i26:                              ; preds = %if.then23, %if.end7.i32
  %done.014.i27 = phi i64 [ %add.i35, %if.end7.i32 ], [ 0, %if.then23 ]
  %add.ptr.i28 = getelementptr i8, ptr %buf, i64 %done.014.i27
  %sub.i29 = sub i64 %conv24, %done.014.i27
  %19 = load i32, ptr %logfd.i22, align 8
  %call11.i30 = call i64 @write(i32 noundef %19, ptr noundef readonly %add.ptr.i28, i64 noundef %sub.i29) #13
  %cmp312.i31 = icmp eq i64 %call11.i30, -1
  br i1 %cmp312.i31, label %land.lhs.true.lr.ph.i38, label %if.end7.i32

land.lhs.true.lr.ph.i38:                          ; preds = %retry.preheader.i26
  %call4.i39 = tail call ptr @__errno_location() #15
  br label %land.lhs.true.i40

land.lhs.true.i40:                                ; preds = %if.then6.i42, %land.lhs.true.lr.ph.i38
  %20 = load i32, ptr %call4.i39, align 4
  %cmp5.i41 = icmp eq i32 %20, 11
  br i1 %cmp5.i41, label %if.then6.i42, label %if.end26

if.then6.i42:                                     ; preds = %land.lhs.true.i40
  call void @g_usleep(i64 noundef 100) #13
  %21 = load i32, ptr %logfd.i22, align 8
  %call.i43 = call i64 @write(i32 noundef %21, ptr noundef readonly %add.ptr.i28, i64 noundef %sub.i29) #13
  %cmp3.i44 = icmp eq i64 %call.i43, -1
  br i1 %cmp3.i44, label %land.lhs.true.i40, label %if.end7.i32

if.end7.i32:                                      ; preds = %if.then6.i42, %retry.preheader.i26
  %call.lcssa.i33 = phi i64 [ %call11.i30, %retry.preheader.i26 ], [ %call.i43, %if.then6.i42 ]
  %cmp8.i34 = icmp sgt i64 %call.lcssa.i33, 0
  %add.i35 = add i64 %call.lcssa.i33, %done.014.i27
  %cmp1.i36 = icmp ult i64 %add.i35, %conv24
  %or.cond19.i37 = and i1 %cmp8.i34, %cmp1.i36
  br i1 %or.cond19.i37, label %retry.preheader.i26, label %if.end26, !llvm.loop !7

if.end26:                                         ; preds = %if.end7.i32, %land.lhs.true.i40, %if.end7.i, %land.lhs.true.i, %while.end17.thread, %if.then23, %if.then19, %if.else20
  %res.188 = phi i32 [ %res.1, %if.then23 ], [ %res.190, %if.then19 ], [ %res.1, %if.else20 ], [ 0, %while.end17.thread ], [ %res.190, %land.lhs.true.i ], [ %res.190, %if.end7.i ], [ %res.1, %land.lhs.true.i40 ], [ %res.1, %if.end7.i32 ]
  call void @qemu_mutex_unlock_impl(ptr noundef nonnull %chr_write_lock, ptr noundef nonnull @.str.2, i32 noundef 157) #13
  ret i32 %res.188
}